target datalayout = "e-m:e-p270:32:32-p271:32:32-p272:64:64-i64:64-i128:128-f80:128-n8:16:32:64-S128"
target triple = "x86_64-pc-linux-gnu"

%struct.hwloc_topology = type { i32, i32, i32, ptr, ptr, i64, [20 x i32], [20 x i32], i64, i64, i32, ptr, i64, ptr, i64, [6 x %struct.hwloc_special_level_s], ptr, ptr, %struct.hwloc_binding_hooks, %struct.hwloc_topology_support, %struct.hwloc_infos_s, ptr, ptr, i32, ptr, ptr, i32, i32, ptr, i32, i32, ptr, i32, i32, i32, [5 x float], i32, ptr, ptr, i32, i32, ptr, i32, %struct.hwloc_numanode_attr_s, i32, i32, ptr, i64, i32, ptr, ptr, ptr }
%struct.hwloc_special_level_s = type { i32, ptr, ptr, ptr }
%struct.hwloc_binding_hooks = type { ptr, ptr, ptr, ptr, ptr, ptr, ptr, ptr, ptr, ptr, ptr, ptr, ptr, ptr, ptr, ptr, ptr, ptr, ptr, ptr, ptr, ptr, ptr, ptr }
%struct.hwloc_topology_support = type { ptr, ptr, ptr, ptr }
%struct.hwloc_infos_s = type { ptr, i32, i32 }
%struct.hwloc_numanode_attr_s = type { i64, i32, ptr }

@.str = private unnamed_addr constant [15 x i8] c"HWLOC_GROUPING\00", align 1
@.str.1 = private unnamed_addr constant [2 x i8] c"C\00", align 1
@.str.2 = private unnamed_addr constant [24 x i8] c"HWLOC_GROUPING_ACCURACY\00", align 1
@.str.3 = private unnamed_addr constant [4 x i8] c"try\00", align 1
@.str.4 = private unnamed_addr constant [23 x i8] c"HWLOC_GROUPING_VERBOSE\00", align 1

; Function Attrs: inlinehint nounwind willreturn memory(read) uwtable
define available_externally double @atof(ptr noundef nonnull %0) #3 {
  %2 = alloca ptr, align 8
  store ptr %0, ptr %2, align 8, !tbaa !39
  %3 = load ptr, ptr %2, align 8, !tbaa !39
  %4 = call double @strtod(ptr noundef %3, ptr noundef null) #15
  ret double %4
}

; Function Attrs: inlinehint nounwind willreturn memory(read) uwtable
define available_externally i32 @atoi(ptr noundef nonnull %0) #3 {
  %2 = alloca ptr, align 8
  store ptr %0, ptr %2, align 8, !tbaa !39
  %3 = load ptr, ptr %2, align 8, !tbaa !39
  %4 = call i64 @strtol(ptr noundef %3, ptr noundef null, i32 noundef 10) #15
  %5 = trunc i64 %4 to i32
  ret i32 %5
}

; Function Attrs: nounwind uwtable
define hidden void @hwloc_internal_distances_prepare(ptr noundef %0) #0 {
  %2 = alloca ptr, align 8
  %3 = alloca ptr, align 8
  %4 = alloca ptr, align 8
  %5 = alloca ptr, align 8
  store ptr %0, ptr %2, align 8, !tbaa !3
  call void @llvm.lifetime.start.p0(i64 8, ptr %3) #15
  call void @llvm.lifetime.start.p0(i64 8, ptr %4) #15
  store ptr null, ptr %4, align 8, !tbaa !35
  call void @llvm.lifetime.start.p0(i64 8, ptr %5) #15
  %6 = load ptr, ptr %2, align 8, !tbaa !3
  %7 = getelementptr inbounds nuw %struct.hwloc_topology, ptr %6, i32 0, i32 32
  store i32 1, ptr %7, align 8, !tbaa !37
  %8 = load ptr, ptr %2, align 8, !tbaa !3
  %9 = getelementptr inbounds nuw %struct.hwloc_topology, ptr %8, i32 0, i32 7
  %10 = getelementptr inbounds [20 x i32], ptr %9, i64 0, i64 13
  %11 = load i32, ptr %10, align 4, !tbaa !38
  %12 = icmp eq i32 %11, 1
  br i1 %12, label %13, label %16

13:                                               ; preds = %1
  %14 = load ptr, ptr %2, align 8, !tbaa !3
  %15 = getelementptr inbounds nuw %struct.hwloc_topology, ptr %14, i32 0, i32 32
  store i32 0, ptr %15, align 8, !tbaa !37
  br label %16

16:                                               ; preds = %13, %1
  %17 = call ptr @getenv(ptr noundef @.str) #15
  store ptr %17, ptr %3, align 8, !tbaa !39
  %18 = load ptr, ptr %3, align 8, !tbaa !39
  %19 = icmp ne ptr %18, null
  br i1 %19, label %20, label %27

20:                                               ; preds = %16
  %21 = load ptr, ptr %3, align 8, !tbaa !39
  %22 = call i32 @atoi(ptr noundef %21) #16
  %23 = icmp ne i32 %22, 0
  br i1 %23, label %27, label %24

24:                                               ; preds = %20
  %25 = load ptr, ptr %2, align 8, !tbaa !3
  %26 = getelementptr inbounds nuw %struct.hwloc_topology, ptr %25, i32 0, i32 32
  store i32 0, ptr %26, align 8, !tbaa !37
  br label %27

27:                                               ; preds = %24, %20, %16
  %28 = load ptr, ptr %2, align 8, !tbaa !3
  %29 = getelementptr inbounds nuw %struct.hwloc_topology, ptr %28, i32 0, i32 32
  %30 = load i32, ptr %29, align 8, !tbaa !37
  %31 = icmp ne i32 %30, 0
  br i1 %31, label %32, label %104

32:                                               ; preds = %27
  %33 = load ptr, ptr %2, align 8, !tbaa !3
  %34 = getelementptr inbounds nuw %struct.hwloc_topology, ptr %33, i32 0, i32 36
  store i32 0, ptr %34, align 8, !tbaa !41
  %35 = load ptr, ptr %2, align 8, !tbaa !3
  %36 = getelementptr inbounds nuw %struct.hwloc_topology, ptr %35, i32 0, i32 35
  %37 = getelementptr inbounds [5 x float], ptr %36, i64 0, i64 0
  store float 0.000000e+00, ptr %37, align 4, !tbaa !42
  %38 = load ptr, ptr %2, align 8, !tbaa !3
  %39 = getelementptr inbounds nuw %struct.hwloc_topology, ptr %38, i32 0, i32 35
  %40 = getelementptr inbounds [5 x float], ptr %39, i64 0, i64 1
  store float 0x3F847AE140000000, ptr %40, align 4, !tbaa !42
  %41 = load ptr, ptr %2, align 8, !tbaa !3
  %42 = getelementptr inbounds nuw %struct.hwloc_topology, ptr %41, i32 0, i32 35
  %43 = getelementptr inbounds [5 x float], ptr %42, i64 0, i64 2
  store float 0x3F947AE140000000, ptr %43, align 4, !tbaa !42
  %44 = load ptr, ptr %2, align 8, !tbaa !3
  %45 = getelementptr inbounds nuw %struct.hwloc_topology, ptr %44, i32 0, i32 35
  %46 = getelementptr inbounds [5 x float], ptr %45, i64 0, i64 3
  store float 0x3FA99999A0000000, ptr %46, align 4, !tbaa !42
  %47 = load ptr, ptr %2, align 8, !tbaa !3
  %48 = getelementptr inbounds nuw %struct.hwloc_topology, ptr %47, i32 0, i32 35
  %49 = getelementptr inbounds [5 x float], ptr %48, i64 0, i64 4
  store float 0x3FB99999A0000000, ptr %49, align 4, !tbaa !42
  %50 = load ptr, ptr %2, align 8, !tbaa !3
  %51 = getelementptr inbounds nuw %struct.hwloc_topology, ptr %50, i32 0, i32 34
  store i32 5, ptr %51, align 8, !tbaa !44
  br label %52

52:                                               ; preds = %32
  %53 = call ptr @newlocale(i32 noundef 8127, ptr noundef @.str.1, ptr noundef null) #15
  store ptr %53, ptr %5, align 8, !tbaa !35
  %54 = load ptr, ptr %5, align 8, !tbaa !35
  %55 = icmp ne ptr %54, null
  br i1 %55, label %56, label %59

56:                                               ; preds = %52
  %57 = load ptr, ptr %5, align 8, !tbaa !35
  %58 = call ptr @uselocale(ptr noundef %57) #15
  store ptr %58, ptr %4, align 8, !tbaa !35
  br label %59

59:                                               ; preds = %56, %52
  br label %60

60:                                               ; preds = %59
  br label %61

61:                                               ; preds = %60
  %62 = call ptr @getenv(ptr noundef @.str.2) #15
  store ptr %62, ptr %3, align 8, !tbaa !39
  %63 = load ptr, ptr %3, align 8, !tbaa !39
  %64 = icmp ne ptr %63, null
  br i1 %64, label %68, label %65

65:                                               ; preds = %61
  %66 = load ptr, ptr %2, align 8, !tbaa !3
  %67 = getelementptr inbounds nuw %struct.hwloc_topology, ptr %66, i32 0, i32 34
  store i32 1, ptr %67, align 8, !tbaa !44
  br label %82

68:                                               ; preds = %61
  %69 = load ptr, ptr %3, align 8, !tbaa !39
  %70 = call i32 @strcmp(ptr noundef %69, ptr noundef @.str.3) #16
  %71 = icmp ne i32 %70, 0
  br i1 %71, label %72, label %81

72:                                               ; preds = %68
  %73 = load ptr, ptr %2, align 8, !tbaa !3
  %74 = getelementptr inbounds nuw %struct.hwloc_topology, ptr %73, i32 0, i32 34
  store i32 1, ptr %74, align 8, !tbaa !44
  %75 = load ptr, ptr %3, align 8, !tbaa !39
  %76 = call double @atof(ptr noundef %75) #16
  %77 = fptrunc double %76 to float
  %78 = load ptr, ptr %2, align 8, !tbaa !3
  %79 = getelementptr inbounds nuw %struct.hwloc_topology, ptr %78, i32 0, i32 35
  %80 = getelementptr inbounds [5 x float], ptr %79, i64 0, i64 0
  store float %77, ptr %80, align 4, !tbaa !42
  br label %81

81:                                               ; preds = %72, %68
  br label %82

82:                                               ; preds = %81, %65
  br label %83

83:                                               ; preds = %82
  %84 = load ptr, ptr %5, align 8, !tbaa !35
  %85 = icmp ne ptr %84, null
  br i1 %85, label %86, label %90

86:                                               ; preds = %83
  %87 = load ptr, ptr %4, align 8, !tbaa !35
  %88 = call ptr @uselocale(ptr noundef %87) #15
  %89 = load ptr, ptr %5, align 8, !tbaa !35
  call void @freelocale(ptr noundef %89) #15
  br label %90

90:                                               ; preds = %86, %83
  br label %91

91:                                               ; preds = %90
  br label %92

92:                                               ; preds = %91
  %93 = load ptr, ptr %2, align 8, !tbaa !3
  %94 = getelementptr inbounds nuw %struct.hwloc_topology, ptr %93, i32 0, i32 33
  store i32 0, ptr %94, align 4, !tbaa !45
  %95 = call ptr @getenv(ptr noundef @.str.4) #15
  store ptr %95, ptr %3, align 8, !tbaa !39
  %96 = load ptr, ptr %3, align 8, !tbaa !39
  %97 = icmp ne ptr %96, null
  br i1 %97, label %98, label %103

98:                                               ; preds = %92
  %99 = load ptr, ptr %3, align 8, !tbaa !39
  %100 = call i32 @atoi(ptr noundef %99) #16
  %101 = load ptr, ptr %2, align 8, !tbaa !3
  %102 = getelementptr inbounds nuw %struct.hwloc_topology, ptr %101, i32 0, i32 33
  store i32 %100, ptr %102, align 4, !tbaa !45
  br label %103

103:                                              ; preds = %98, %92
  br label %104

104:                                              ; preds = %103, %27
  call void @llvm.lifetime.end.p0(i64 8, ptr %5) #15
  call void @llvm.lifetime.end.p0(i64 8, ptr %4) #15
  call void @llvm.lifetime.end.p0(i64 8, ptr %3) #15
  ret void
}