; Function Attrs: nounwind uwtable
define hidden void @hwloc_internal_distances_prepare(ptr noundef captures(none) initializes((776, 780)) %0) local_unnamed_addr #1 {
  %2 = getelementptr inbounds nuw i8, ptr %0, i64 776
  %3 = getelementptr inbounds nuw i8, ptr %0, i64 172
  %4 = load i32, ptr %3, align 4, !tbaa !3
  %5 = icmp ne i32 %4, 1
  %spec.store.select = zext i1 %5 to i32
  store i32 %spec.store.select, ptr %2, align 8
  %6 = tail call ptr @getenv(ptr noundef nonnull @.str) #27
  %.not = icmp eq ptr %6, null
  br i1 %.not, label %10, label %7

7:                                                ; preds = %1
  %8 = tail call i64 @strtol(ptr noundef nonnull captures(none) %6, ptr noundef null, i32 noundef 10) #27
  %9 = and i64 %8, 4294967295
  %.not33 = icmp eq i64 %9, 0
  br i1 %.not33, label %.thread, label %thread-pre-split

.thread:                                          ; preds = %7
  store i32 0, ptr %2, align 8, !tbaa !7
  br label %40

thread-pre-split:                                 ; preds = %7
  %.pr = load i32, ptr %2, align 8, !tbaa !7
  br label %10

10:                                               ; preds = %thread-pre-split, %1
  %11 = phi i32 [ %.pr, %thread-pre-split ], [ %spec.store.select, %1 ]
  %.not34 = icmp eq i32 %11, 0
  br i1 %.not34, label %40, label %12

12:                                               ; preds = %10
  %13 = getelementptr inbounds nuw i8, ptr %0, i64 808
  store i32 0, ptr %13, align 8, !tbaa !32
  %14 = getelementptr inbounds nuw i8, ptr %0, i64 788
  store float 0.000000e+00, ptr %14, align 4, !tbaa !33
  %15 = getelementptr inbounds nuw i8, ptr %0, i64 792
  store float 0x3F847AE140000000, ptr %15, align 4, !tbaa !33
  %16 = getelementptr inbounds nuw i8, ptr %0, i64 796
  store float 0x3F947AE140000000, ptr %16, align 4, !tbaa !33
  %17 = getelementptr inbounds nuw i8, ptr %0, i64 800
  store float 0x3FA99999A0000000, ptr %17, align 4, !tbaa !33
  %18 = getelementptr inbounds nuw i8, ptr %0, i64 804
  store float 0x3FB99999A0000000, ptr %18, align 4, !tbaa !33
  %19 = getelementptr inbounds nuw i8, ptr %0, i64 784
  store i32 5, ptr %19, align 8, !tbaa !35
  %20 = tail call ptr @newlocale(i32 noundef 8127, ptr noundef nonnull @.str.1, ptr noundef null) #27
  %.not35 = icmp eq ptr %20, null
  br i1 %.not35, label %23, label %21

21:                                               ; preds = %12
  %22 = tail call ptr @uselocale(ptr noundef nonnull %20) #27
  br label %23

23:                                               ; preds = %21, %12
  %.0 = phi ptr [ %22, %21 ], [ null, %12 ]
  %24 = tail call ptr @getenv(ptr noundef nonnull @.str.2) #27
  %.not36 = icmp eq ptr %24, null
  br i1 %.not36, label %25, label %26

25:                                               ; preds = %23
  store i32 1, ptr %19, align 8, !tbaa !35
  br label %31

26:                                               ; preds = %23
  %27 = tail call i32 @strcmp(ptr noundef nonnull dereferenceable(1) %24, ptr noundef nonnull dereferenceable(4) @.str.3) #28
  %.not37 = icmp eq i32 %27, 0
  br i1 %.not37, label %31, label %28

28:                                               ; preds = %26
  store i32 1, ptr %19, align 8, !tbaa !35
  %29 = tail call double @strtod(ptr noundef nonnull captures(none) %24, ptr noundef null) #27
  %30 = fptrunc double %29 to float
  store float %30, ptr %14, align 4, !tbaa !33
  br label %31

31:                                               ; preds = %25, %28, %26
  br i1 %.not35, label %34, label %32

32:                                               ; preds = %31
  %33 = tail call ptr @uselocale(ptr noundef %.0) #27
  tail call void @freelocale(ptr noundef nonnull %20) #27
  br label %34

34:                                               ; preds = %32, %31
  %35 = getelementptr inbounds nuw i8, ptr %0, i64 780
  store i32 0, ptr %35, align 4, !tbaa !36
  %36 = tail call ptr @getenv(ptr noundef nonnull @.str.4) #27
  %.not38 = icmp eq ptr %36, null
  br i1 %.not38, label %40, label %37

37:                                               ; preds = %34
  %38 = tail call i64 @strtol(ptr noundef nonnull captures(none) %36, ptr noundef null, i32 noundef 10) #27
  %39 = trunc i64 %38 to i32
  store i32 %39, ptr %35, align 4, !tbaa !36
  br label %40

40:                                               ; preds = %.thread, %34, %37, %10
  ret void
}